; Function Attrs: mustprogress nofree norecurse nounwind memory(readwrite, inaccessiblemem: none) uwtable
define internal void @_ZN7rocksdb12_GLOBAL__N_111SkipListRep17LookaheadIterator10SeekToLastEv(ptr nocapture noundef nonnull align 8 dereferenceable(80) %this) unnamed_addr #14 align 2 {
entry:
  %iter_ = getelementptr inbounds i8, ptr %this, i64 48
  %0 = load ptr, ptr %iter_, align 8
  %head_.i.i = getelementptr inbounds i8, ptr %0, i64 24
  %1 = load ptr, ptr %head_.i.i, align 8
  %max_height_.i.i.i = getelementptr inbounds i8, ptr %0, i64 32
  %2 = load atomic i32, ptr %max_height_.i.i.i monotonic, align 4
  br label %while.body.i.i.outer

while.body.i.i.outer:                             ; preds = %if.then.i.i, %entry
  %level.0.i.i.ph.in = phi i32 [ %2, %entry ], [ %level.0.i.i.ph, %if.then.i.i ]
  %x.0.i.i.ph = phi ptr [ %1, %entry ], [ %x.0.i.i, %if.then.i.i ]
  %level.0.i.i.ph = add nsw i32 %level.0.i.i.ph.in, -1
  %idx.ext.i.i.i = sext i32 %level.0.i.i.ph to i64
  %idx.neg.i.i.i = sub nsw i64 0, %idx.ext.i.i.i
  br label %while.body.i.i

while.body.i.i:                                   ; preds = %while.body.i.i.outer, %while.body.i.i
  %x.0.i.i = phi ptr [ %atomic-temp.i.0.i.i.i.i, %while.body.i.i ], [ %x.0.i.i.ph, %while.body.i.i.outer ]
  %add.ptr.i.i.i = getelementptr inbounds %"struct.std::atomic.29", ptr %x.0.i.i, i64 %idx.neg.i.i.i
  %3 = load atomic i64, ptr %add.ptr.i.i.i acquire, align 8
  %atomic-temp.i.0.i.i.i.i = inttoptr i64 %3 to ptr
  %cmp.i.i = icmp eq i64 %3, 0
  br i1 %cmp.i.i, label %if.then.i.i, label %while.body.i.i, !llvm.loop !38

if.then.i.i:                                      ; preds = %while.body.i.i
  %cmp3.i.i = icmp eq i32 %level.0.i.i.ph, 0
  br i1 %cmp3.i.i, label %_ZN7rocksdb14InlineSkipListIRKNS_11MemTableRep13KeyComparatorEE8Iterator10SeekToLastEv.exit, label %while.body.i.i.outer, !llvm.loop !38

_ZN7rocksdb14InlineSkipListIRKNS_11MemTableRep13KeyComparatorEE8Iterator10SeekToLastEv.exit: ; preds = %if.then.i.i
  %node_.i = getelementptr inbounds i8, ptr %this, i64 56
  store ptr %x.0.i.i, ptr %node_.i, align 8
  %4 = load ptr, ptr %iter_, align 8
  %head_.i = getelementptr inbounds i8, ptr %4, i64 24
  %5 = load ptr, ptr %head_.i, align 8
  %cmp.i = icmp eq ptr %x.0.i.i, %5
  %spec.store.select.i = select i1 %cmp.i, ptr null, ptr %x.0.i.i
  store ptr %spec.store.select.i, ptr %node_.i, align 8
  %prev_ = getelementptr inbounds i8, ptr %this, i64 64
  tail call void @llvm.memcpy.p0.p0.i64(ptr noundef nonnull align 8 dereferenceable(16) %prev_, ptr noundef nonnull align 8 dereferenceable(16) %iter_, i64 16, i1 false)
  ret void
}